; Function Attrs: mustprogress nofree norecurse nosync nounwind willreturn memory(read, argmem: readwrite, inaccessiblemem: none) uwtable
define noundef i32 @H5HF__op_read(ptr noundef readonly captures(none) %0, i64 noundef %1, ptr noundef writeonly captures(none) %2) local_unnamed_addr #0 {
  %4 = load i8, ptr @H5HF_init_g, align 1, !tbaa !3, !range !7, !noundef !8
  %5 = trunc nuw i8 %4 to i1
  %6 = load i8, ptr @H5_libterm_g, align 1, !range !7
  %7 = trunc nuw i8 %6 to i1
  %8 = xor i1 %7, true
  %9 = select i1 %5, i1 true, i1 %8
  br i1 %9, label %10, label %11, !prof !9

10:                                               ; preds = %3
  tail call void @llvm.memcpy.p0.p0.i64(ptr align 1 %2, ptr align 1 %0, i64 %1, i1 false)
  br label %11

11:                                               ; preds = %10, %3
  ret i32 0
}